; Function Attrs: nounwind uwtable
define ptr @l_Lean_logWarning___at_Lean_initFn____x40_Lean_Elab_InheritDoc___hyg_3____spec__6(ptr noundef %0, ptr noundef %1, ptr noundef %2, ptr noundef %3) local_unnamed_addr #0 {
  %5 = getelementptr inbounds nuw i8, ptr %1, i64 24
  %6 = load ptr, ptr %5, align 8, !tbaa !4
  %7 = ptrtoint ptr %6 to i64
  %8 = and i64 %7, 1
  %.not = icmp eq i64 %8, 0
  br i1 %.not, label %9, label %lean_inc.exit

9:                                                ; preds = %4
  %.val.i = load i32, ptr %6, align 4, !tbaa !8
  %10 = icmp sgt i32 %.val.i, 0
  br i1 %10, label %11, label %13, !prof !11

11:                                               ; preds = %9
  %12 = add nuw i32 %.val.i, 1
  store i32 %12, ptr %6, align 4, !tbaa !8
  br label %17

13:                                               ; preds = %9
  %.not.i18 = icmp eq i32 %.val.i, 0
  br i1 %.not.i18, label %17, label %14

14:                                               ; preds = %13
  tail call void @lean_inc_ref_cold(ptr noundef nonnull %6) #5
  br label %17

lean_inc.exit:                                    ; preds = %4
  %15 = load ptr, ptr @l_Lean_logAt___at_Lean_initFn____x40_Lean_Elab_InheritDoc___hyg_3____spec__4___closed__2, align 8, !tbaa !4
  %16 = tail call zeroext i8 @l_Lean_Option_get___at___private_Lean_Util_Profile_0__Lean_get__profiler___spec__1(ptr noundef %6, ptr noundef %15) #5
  br label %lean_dec.exit

17:                                               ; preds = %14, %13, %11
  %18 = load ptr, ptr @l_Lean_logAt___at_Lean_initFn____x40_Lean_Elab_InheritDoc___hyg_3____spec__4___closed__2, align 8, !tbaa !4
  %19 = tail call zeroext i8 @l_Lean_Option_get___at___private_Lean_Util_Profile_0__Lean_get__profiler___spec__1(ptr noundef nonnull %6, ptr noundef %18) #5
  %20 = load i32, ptr %6, align 4, !tbaa !8
  %21 = icmp sgt i32 %20, 1
  br i1 %21, label %22, label %24, !prof !11

22:                                               ; preds = %17
  %23 = add nsw i32 %20, -1
  store i32 %23, ptr %6, align 4, !tbaa !8
  br label %lean_dec.exit

24:                                               ; preds = %17
  %.not.i = icmp eq i32 %20, 0
  br i1 %.not.i, label %lean_dec.exit, label %25

25:                                               ; preds = %24
  tail call void @lean_dec_ref_cold(ptr noundef nonnull %6) #5
  br label %lean_dec.exit

lean_dec.exit:                                    ; preds = %25, %24, %22, %lean_inc.exit
  %26 = phi i8 [ %16, %lean_inc.exit ], [ %19, %22 ], [ %19, %24 ], [ %19, %25 ]
  %27 = icmp eq i8 %26, 0
  %28 = getelementptr inbounds nuw i8, ptr %1, i64 48
  %29 = load ptr, ptr %28, align 8, !tbaa !4
  %30 = ptrtoint ptr %29 to i64
  %31 = and i64 %30, 1
  %.not.i19 = icmp eq i64 %31, 0
  br i1 %27, label %32, label %48

32:                                               ; preds = %lean_dec.exit
  br i1 %.not.i19, label %33, label %lean_inc.exit.i

33:                                               ; preds = %32
  %.val.i.i = load i32, ptr %29, align 4, !tbaa !8
  %34 = icmp sgt i32 %.val.i.i, 0
  br i1 %34, label %35, label %37, !prof !11

35:                                               ; preds = %33
  %36 = add nuw i32 %.val.i.i, 1
  store i32 %36, ptr %29, align 4, !tbaa !8
  br label %40

37:                                               ; preds = %33
  %.not.i10.i = icmp eq i32 %.val.i.i, 0
  br i1 %.not.i10.i, label %40, label %38

38:                                               ; preds = %37
  tail call void @lean_inc_ref_cold(ptr noundef nonnull %29) #5
  br label %40

lean_inc.exit.i:                                  ; preds = %32
  %39 = tail call ptr @l_Lean_logAt___at_Lean_initFn____x40_Lean_Elab_InheritDoc___hyg_3____spec__4(ptr noundef %29, ptr noundef %0, i8 noundef zeroext 1, i8 noundef zeroext 0, ptr noundef nonnull %1, ptr noundef %2, ptr noundef %3)
  br label %l_Lean_log___at_Lean_initFn____x40_Lean_Elab_InheritDoc___hyg_3____spec__7.exit

40:                                               ; preds = %38, %37, %35
  %41 = tail call ptr @l_Lean_logAt___at_Lean_initFn____x40_Lean_Elab_InheritDoc___hyg_3____spec__4(ptr noundef nonnull %29, ptr noundef %0, i8 noundef zeroext 1, i8 noundef zeroext 0, ptr noundef nonnull %1, ptr noundef %2, ptr noundef %3)
  %42 = load i32, ptr %29, align 4, !tbaa !8
  %43 = icmp sgt i32 %42, 1
  br i1 %43, label %44, label %46, !prof !11

44:                                               ; preds = %40
  %45 = add nsw i32 %42, -1
  store i32 %45, ptr %29, align 4, !tbaa !8
  br label %l_Lean_log___at_Lean_initFn____x40_Lean_Elab_InheritDoc___hyg_3____spec__7.exit

46:                                               ; preds = %40
  %.not.i.i = icmp eq i32 %42, 0
  br i1 %.not.i.i, label %l_Lean_log___at_Lean_initFn____x40_Lean_Elab_InheritDoc___hyg_3____spec__7.exit, label %47

47:                                               ; preds = %46
  tail call void @lean_dec_ref_cold(ptr noundef nonnull %29) #5
  br label %l_Lean_log___at_Lean_initFn____x40_Lean_Elab_InheritDoc___hyg_3____spec__7.exit

48:                                               ; preds = %lean_dec.exit
  br i1 %.not.i19, label %49, label %lean_inc.exit.i21

49:                                               ; preds = %48
  %.val.i.i22 = load i32, ptr %29, align 4, !tbaa !8
  %50 = icmp sgt i32 %.val.i.i22, 0
  br i1 %50, label %51, label %53, !prof !11

51:                                               ; preds = %49
  %52 = add nuw i32 %.val.i.i22, 1
  store i32 %52, ptr %29, align 4, !tbaa !8
  br label %56

53:                                               ; preds = %49
  %.not.i10.i23 = icmp eq i32 %.val.i.i22, 0
  br i1 %.not.i10.i23, label %56, label %54

54:                                               ; preds = %53
  tail call void @lean_inc_ref_cold(ptr noundef nonnull %29) #5
  br label %56

lean_inc.exit.i21:                                ; preds = %48
  %55 = tail call ptr @l_Lean_logAt___at_Lean_initFn____x40_Lean_Elab_InheritDoc___hyg_3____spec__4(ptr noundef %29, ptr noundef %0, i8 noundef zeroext 2, i8 noundef zeroext 0, ptr noundef nonnull %1, ptr noundef %2, ptr noundef %3)
  br label %l_Lean_log___at_Lean_initFn____x40_Lean_Elab_InheritDoc___hyg_3____spec__7.exit

56:                                               ; preds = %54, %53, %51
  %57 = tail call ptr @l_Lean_logAt___at_Lean_initFn____x40_Lean_Elab_InheritDoc___hyg_3____spec__4(ptr noundef nonnull %29, ptr noundef %0, i8 noundef zeroext 2, i8 noundef zeroext 0, ptr noundef nonnull %1, ptr noundef %2, ptr noundef %3)
  %58 = load i32, ptr %29, align 4, !tbaa !8
  %59 = icmp sgt i32 %58, 1
  br i1 %59, label %60, label %62, !prof !11

60:                                               ; preds = %56
  %61 = add nsw i32 %58, -1
  store i32 %61, ptr %29, align 4, !tbaa !8
  br label %l_Lean_log___at_Lean_initFn____x40_Lean_Elab_InheritDoc___hyg_3____spec__7.exit

62:                                               ; preds = %56
  %.not.i.i24 = icmp eq i32 %58, 0
  br i1 %.not.i.i24, label %l_Lean_log___at_Lean_initFn____x40_Lean_Elab_InheritDoc___hyg_3____spec__7.exit, label %63

63:                                               ; preds = %62
  tail call void @lean_dec_ref_cold(ptr noundef nonnull %29) #5
  br label %l_Lean_log___at_Lean_initFn____x40_Lean_Elab_InheritDoc___hyg_3____spec__7.exit

l_Lean_log___at_Lean_initFn____x40_Lean_Elab_InheritDoc___hyg_3____spec__7.exit: ; preds = %63, %62, %60, %lean_inc.exit.i21, %47, %46, %44, %lean_inc.exit.i
  %.0 = phi ptr [ %39, %lean_inc.exit.i ], [ %41, %44 ], [ %41, %46 ], [ %41, %47 ], [ %55, %lean_inc.exit.i21 ], [ %57, %60 ], [ %57, %62 ], [ %57, %63 ]
  ret ptr %.0
}